; Function Attrs: mustprogress uwtable
define void @_ZN2cv6detail8tracking14kalman_filters27createUnscentedKalmanFilterERKNS2_27UnscentedKalmanFilterParamsE(ptr dead_on_unwind noalias writable writeonly sret(%"struct.cv::Ptr.0") align 8 captures(none) %0, ptr noundef nonnull align 8 dereferenceable(440) %1) local_unnamed_addr #3 personality ptr @__gxx_personality_v0 {
  %3 = tail call noalias noundef nonnull dereferenceable(1712) ptr @_Znwm(i64 noundef 1712) #23
  invoke void @_ZN2cv6detail8tracking14kalman_filters25UnscentedKalmanFilterImplC2ERKNS2_27UnscentedKalmanFilterParamsE(ptr noundef nonnull align 8 dereferenceable(1712) %3, ptr noundef nonnull align 8 dereferenceable(440) %1)
          to label %4 unwind label %23

4:                                                ; preds = %2
  store ptr %3, ptr %0, align 8, !tbaa !99
  %5 = getelementptr inbounds nuw i8, ptr %0, i64 8
  store ptr null, ptr %5, align 8, !tbaa !33
  %6 = invoke noalias noundef nonnull dereferenceable(24) ptr @_Znwm(i64 noundef 24) #23
          to label %_ZN2cv3PtrINS_6detail8tracking14kalman_filters21UnscentedKalmanFilterEEC2INS3_25UnscentedKalmanFilterImplEEEPT_.exit unwind label %7

7:                                                ; preds = %4
  %8 = landingpad { ptr, i32 }
          catch ptr null
  %9 = extractvalue { ptr, i32 } %8, 0
  %10 = tail call ptr @__cxa_begin_catch(ptr %9) #19
  %11 = load ptr, ptr %3, align 8, !tbaa !39
  %12 = getelementptr inbounds nuw i8, ptr %11, i64 8
  %13 = load ptr, ptr %12, align 8
  tail call void %13(ptr noundef nonnull align 8 dereferenceable(1712) %3) #19
  invoke void @__cxa_rethrow() #20
          to label %19 unwind label %14

14:                                               ; preds = %7
  %15 = landingpad { ptr, i32 }
          cleanup
  invoke void @__cxa_end_catch()
          to label %common.resume unwind label %16

common.resume:                                    ; preds = %14, %23
  %common.resume.op = phi { ptr, i32 } [ %24, %23 ], [ %15, %14 ]
  resume { ptr, i32 } %common.resume.op

16:                                               ; preds = %14
  %17 = landingpad { ptr, i32 }
          catch ptr null
  %18 = extractvalue { ptr, i32 } %17, 0
  tail call void @__clang_call_terminate(ptr %18) #22
  unreachable

19:                                               ; preds = %7
  unreachable

_ZN2cv3PtrINS_6detail8tracking14kalman_filters21UnscentedKalmanFilterEEC2INS3_25UnscentedKalmanFilterImplEEEPT_.exit: ; preds = %4
  %20 = getelementptr inbounds nuw i8, ptr %6, i64 8
  store i32 1, ptr %20, align 8, !tbaa !36
  %21 = getelementptr inbounds nuw i8, ptr %6, i64 12
  store i32 1, ptr %21, align 4, !tbaa !38
  store ptr getelementptr inbounds nuw inrange(-16, 40) (i8, ptr @_ZTVSt15_Sp_counted_ptrIPN2cv6detail8tracking14kalman_filters25UnscentedKalmanFilterImplELN9__gnu_cxx12_Lock_policyE2EE, i64 16), ptr %6, align 8, !tbaa !39
  %22 = getelementptr inbounds nuw i8, ptr %6, i64 16
  store ptr %3, ptr %22, align 8, !tbaa !102
  store ptr %6, ptr %5, align 8, !tbaa !33
  ret void

23:                                               ; preds = %2
  %24 = landingpad { ptr, i32 }
          cleanup
  tail call void @_ZdlPv(ptr noundef nonnull %3) #21
  br label %common.resume
}